; Function Attrs: mustprogress nounwind uwtable
define dso_local void @_ZN4Luau7CodeGen27destroySharedCodeGenContextEPKNS0_20SharedCodeGenContextE(ptr noundef %0) local_unnamed_addr #7 personality ptr @__gxx_personality_v0 {
  %2 = icmp eq ptr %0, null
  br i1 %2, label %11, label %3

3:                                                ; preds = %1
  %4 = getelementptr inbounds nuw i8, ptr %0, i64 2784
  tail call void @_ZN4Luau7CodeGen19SharedCodeAllocatorD1Ev(ptr noundef nonnull align 8 dereferenceable(112) %4) #24
  store ptr getelementptr inbounds nuw inrange(-16, 32) (i8, ptr @_ZTVN4Luau7CodeGen18BaseCodeGenContextE, i64 16), ptr %0, align 8, !tbaa !8
  %5 = getelementptr inbounds nuw i8, ptr %0, i64 128
  %6 = load ptr, ptr %5, align 8, !tbaa !24
  %.not.i.i.i = icmp eq ptr %6, null
  br i1 %.not.i.i.i, label %_ZN4Luau7CodeGen20SharedCodeGenContextD2Ev.exit, label %_ZNKSt14default_deleteIN4Luau7CodeGen13UnwindBuilderEEclEPS2_.exit.i.i.i

_ZNKSt14default_deleteIN4Luau7CodeGen13UnwindBuilderEEclEPS2_.exit.i.i.i: ; preds = %3
  %7 = load ptr, ptr %6, align 8, !tbaa !8
  %8 = getelementptr inbounds nuw i8, ptr %7, i64 8
  %9 = load ptr, ptr %8, align 8
  tail call void %9(ptr noundef nonnull align 8 dereferenceable(8) %6) #24
  br label %_ZN4Luau7CodeGen20SharedCodeGenContextD2Ev.exit

_ZN4Luau7CodeGen20SharedCodeGenContextD2Ev.exit:  ; preds = %3, %_ZNKSt14default_deleteIN4Luau7CodeGen13UnwindBuilderEEclEPS2_.exit.i.i.i
  store ptr null, ptr %5, align 8, !tbaa !24
  %10 = getelementptr inbounds nuw i8, ptr %0, i64 8
  tail call void @_ZN4Luau7CodeGen13CodeAllocatorD1Ev(ptr noundef nonnull align 8 dereferenceable(120) %10) #24
  tail call void @_ZdlPvm(ptr noundef nonnull %0, i64 noundef 2896) #25
  br label %11

11:                                               ; preds = %_ZN4Luau7CodeGen20SharedCodeGenContextD2Ev.exit, %1
  ret void
}